MODULE Mac arm64 F2DF950B5C5633B88308722BDB7790100 liba.dylib.dSYM
INFO CODE_ID F2DF950B5C5633B88308722BDB779010
INFO GENERATOR mozilla/dump_syms 2.3.4
FUNC 32bc 438 0 smf::test()
FUNC 36f4 a0 0 A::func()
FUNC 3794 50 0 std::__1::shared_ptr<int>::~shared_ptr[abi:v160006]()
FUNC 37e4 b4 0 A::A()
FUNC 3898 4 0 A::A()
PUBLIC 389c 0 __clang_call_terminate
FUNC 38a8 14 0 std::__1::vector<int, std::__1::allocator<int> >::__throw_length_error[abi:v160006]() const
FUNC 38bc 50 0 std::__1::__throw_length_error[abi:v160006](char const*)
FUNC 390c 24 0 std::length_error::length_error[abi:v160006](char const*)
FUNC 3930 28 0 std::__throw_bad_array_new_length([abi:v160006], void)
FUNC 3958 14 0 std::__1::__shared_ptr_emplace<int, std::__1::allocator<int> >::~__shared_ptr_emplace()
FUNC 396c 24 0 std::__1::__shared_ptr_emplace<int, std::__1::allocator<int> >::~__shared_ptr_emplace()
FUNC 3990 4 0 std::__1::__shared_ptr_emplace<int, std::__1::allocator<int> >::__on_zero_shared()
FUNC 3994 4 0 std::__1::__shared_ptr_emplace<int, std::__1::allocator<int> >::__on_zero_shared_weak()
FUNC 3998 164 0 std::__1::__put_character_sequence[abi:v160006]<char, std::__1::char_traits<char> >(std::__1::basic_ostream<char, std::__1::char_traits<char> >, std::__1::basic_ostream const*, unsigned long)
FUNC 3afc 194 0 std::__1::__pad_and_output[abi:v160006]<char, std::__1::char_traits<char> >(std::__1::char_traits<char>, std::__1::ostreambuf_iterator const*, std::__1::ostreambuf_iterator const, std::__1::ostreambuf_iterator const, std::__1::ios_base&, std::__1::ostreambuf_iterator)
FUNC 3c90 14 0 std::__1::basic_string<char, std::__1::char_traits<char>, std::__1::allocator<char> >::__throw_length_error[abi:v160006]() const
STACK CFI INIT 389c c .cfa: sp 0 +
STACK CFI 38a0 .cfa: sp 16 + .ra: .cfa -8 + ^ x29: .cfa -16 + ^
